target datalayout = "e-m:e-p270:32:32-p271:32:32-p272:64:64-i64:64-i128:128-f80:128-n8:16:32:64-S128"
target triple = "x86_64-pc-linux-gnu"

%struct.SparseMatrix_struct = type { i32, i32, i32, i32, i32, ptr, ptr, ptr, i32, i8, i64 }

; Function Attrs: nounwind uwtable
define zeroext i1 @SparseMatrix_has_diagonal(ptr noundef %0) #0 {
  %2 = alloca i1, align 1
  %3 = alloca ptr, align 8
  %4 = alloca i32, align 4
  %5 = alloca i32, align 4
  %6 = alloca i32, align 4
  %7 = alloca ptr, align 8
  %8 = alloca ptr, align 8
  %9 = alloca i32, align 4
  store ptr %0, ptr %3, align 8, !tbaa !3
  call void @llvm.lifetime.start.p0(i64 4, ptr %4) #11
  call void @llvm.lifetime.start.p0(i64 4, ptr %5) #11
  call void @llvm.lifetime.start.p0(i64 4, ptr %6) #11
  %10 = load ptr, ptr %3, align 8, !tbaa !3
  %11 = getelementptr inbounds nuw %struct.SparseMatrix_struct, ptr %10, i32 0, i32 0
  %12 = load i32, ptr %11, align 8, !tbaa !18
  store i32 %12, ptr %6, align 4, !tbaa !17
  call void @llvm.lifetime.start.p0(i64 8, ptr %7) #11
  %13 = load ptr, ptr %3, align 8, !tbaa !3
  %14 = getelementptr inbounds nuw %struct.SparseMatrix_struct, ptr %13, i32 0, i32 5
  %15 = load ptr, ptr %14, align 8, !tbaa !8
  store ptr %15, ptr %7, align 8, !tbaa !14
  call void @llvm.lifetime.start.p0(i64 8, ptr %8) #11
  %16 = load ptr, ptr %3, align 8, !tbaa !3
  %17 = getelementptr inbounds nuw %struct.SparseMatrix_struct, ptr %16, i32 0, i32 6
  %18 = load ptr, ptr %17, align 8, !tbaa !15
  store ptr %18, ptr %8, align 8, !tbaa !14
  store i32 0, ptr %4, align 4, !tbaa !17
  br label %19

19:                                               ; preds = %52, %1
  %20 = load i32, ptr %4, align 4, !tbaa !17
  %21 = load i32, ptr %6, align 4, !tbaa !17
  %22 = icmp slt i32 %20, %21
  br i1 %22, label %23, label %55

23:                                               ; preds = %19
  %24 = load ptr, ptr %7, align 8, !tbaa !14
  %25 = load i32, ptr %4, align 4, !tbaa !17
  %26 = sext i32 %25 to i64
  %27 = getelementptr inbounds i32, ptr %24, i64 %26
  %28 = load i32, ptr %27, align 4, !tbaa !17
  store i32 %28, ptr %5, align 4, !tbaa !17
  br label %29

29:                                               ; preds = %48, %23
  %30 = load i32, ptr %5, align 4, !tbaa !17
  %31 = load ptr, ptr %7, align 8, !tbaa !14
  %32 = load i32, ptr %4, align 4, !tbaa !17
  %33 = add nsw i32 %32, 1
  %34 = sext i32 %33 to i64
  %35 = getelementptr inbounds i32, ptr %31, i64 %34
  %36 = load i32, ptr %35, align 4, !tbaa !17
  %37 = icmp slt i32 %30, %36
  br i1 %37, label %38, label %51

38:                                               ; preds = %29
  %39 = load i32, ptr %4, align 4, !tbaa !17
  %40 = load ptr, ptr %8, align 8, !tbaa !14
  %41 = load i32, ptr %5, align 4, !tbaa !17
  %42 = sext i32 %41 to i64
  %43 = getelementptr inbounds i32, ptr %40, i64 %42
  %44 = load i32, ptr %43, align 4, !tbaa !17
  %45 = icmp eq i32 %39, %44
  br i1 %45, label %46, label %47

46:                                               ; preds = %38
  store i1 true, ptr %2, align 1
  store i32 1, ptr %9, align 4
  br label %56

47:                                               ; preds = %38
  br label %48

48:                                               ; preds = %47
  %49 = load i32, ptr %5, align 4, !tbaa !17
  %50 = add nsw i32 %49, 1
  store i32 %50, ptr %5, align 4, !tbaa !17
  br label %29, !llvm.loop !185

51:                                               ; preds = %29
  br label %52

52:                                               ; preds = %51
  %53 = load i32, ptr %4, align 4, !tbaa !17
  %54 = add nsw i32 %53, 1
  store i32 %54, ptr %4, align 4, !tbaa !17
  br label %19, !llvm.loop !186

55:                                               ; preds = %19
  store i1 false, ptr %2, align 1
  store i32 1, ptr %9, align 4
  br label %56

56:                                               ; preds = %55, %46
  call void @llvm.lifetime.end.p0(i64 8, ptr %8) #11
  call void @llvm.lifetime.end.p0(i64 8, ptr %7) #11
  call void @llvm.lifetime.end.p0(i64 4, ptr %6) #11
  call void @llvm.lifetime.end.p0(i64 4, ptr %5) #11
  call void @llvm.lifetime.end.p0(i64 4, ptr %4) #11
  %57 = load i1, ptr %2, align 1
  ret i1 %57
}