; Function Attrs: nofree norecurse nosync nounwind memory(read, inaccessiblemem: none) uwtable
define noundef zeroext i1 @SparseMatrix_has_diagonal(ptr noundef readonly captures(none) %0) local_unnamed_addr #10 {
  %2 = load i32, ptr %0, align 8, !tbaa !15
  %3 = getelementptr inbounds nuw i8, ptr %0, i64 24
  %4 = load ptr, ptr %3, align 8, !tbaa !3
  %5 = getelementptr inbounds nuw i8, ptr %0, i64 32
  %6 = load ptr, ptr %5, align 8, !tbaa !12
  %7 = icmp sgt i32 %2, 0
  br i1 %7, label %.lr.ph24.preheader, label %.loopexit17

.lr.ph24.preheader:                               ; preds = %1
  %wide.trip.count = zext nneg i32 %2 to i64
  %.pre = load i32, ptr %4, align 4, !tbaa !19
  br label %.lr.ph24

.loopexit:                                        ; preds = %13, %.lr.ph24
  %exitcond30.not = icmp eq i64 %indvars.iv.next28, %wide.trip.count
  br i1 %exitcond30.not, label %.loopexit17, label %.lr.ph24, !llvm.loop !167

.lr.ph24:                                         ; preds = %.lr.ph24.preheader, %.loopexit
  %8 = phi i32 [ %.pre, %.lr.ph24.preheader ], [ %10, %.loopexit ]
  %indvars.iv27 = phi i64 [ 0, %.lr.ph24.preheader ], [ %indvars.iv.next28, %.loopexit ]
  %indvars.iv.next28 = add nuw nsw i64 %indvars.iv27, 1
  %9 = getelementptr inbounds nuw i32, ptr %4, i64 %indvars.iv.next28
  %10 = load i32, ptr %9, align 4, !tbaa !19
  %11 = icmp slt i32 %8, %10
  br i1 %11, label %.lr.ph.preheader, label %.loopexit

.lr.ph.preheader:                                 ; preds = %.lr.ph24
  %12 = sext i32 %8 to i64
  br label %.lr.ph

13:                                               ; preds = %.lr.ph
  %indvars.iv.next = add nsw i64 %indvars.iv, 1
  %lftr.wideiv = trunc i64 %indvars.iv.next to i32
  %exitcond.not = icmp eq i32 %10, %lftr.wideiv
  br i1 %exitcond.not, label %.loopexit, label %.lr.ph, !llvm.loop !168

.lr.ph:                                           ; preds = %.lr.ph.preheader, %13
  %indvars.iv = phi i64 [ %12, %.lr.ph.preheader ], [ %indvars.iv.next, %13 ]
  %14 = getelementptr inbounds i32, ptr %6, i64 %indvars.iv
  %15 = load i32, ptr %14, align 4, !tbaa !19
  %16 = zext i32 %15 to i64
  %17 = icmp eq i64 %indvars.iv27, %16
  br i1 %17, label %.loopexit17, label %13

.loopexit17:                                      ; preds = %.loopexit, %.lr.ph, %1
  %18 = phi i1 [ false, %1 ], [ true, %.lr.ph ], [ false, %.loopexit ]
  ret i1 %18
}